target datalayout = "e-m:e-p270:32:32-p271:32:32-p272:64:64-i64:64-i128:128-f80:128-n8:16:32:64-S128"
target triple = "x86_64-pc-linux-gnu"

%struct.AVFilterPad = type { ptr, i32, i32, %union.anon, ptr, ptr, ptr }
%union.anon = type { ptr }
%struct.AVFilterContext = type { ptr, ptr, ptr, ptr, ptr, i32, ptr, ptr, i32, ptr, ptr, i32, i32, ptr, ptr, ptr, ptr, i32, ptr, i32, i32 }
%struct.FieldMatchContext = type { ptr, ptr, ptr, ptr, ptr, ptr, ptr, [2 x i32], [2 x i32], [2 x i32], i32, i32, i64, i64, i32, i32, i32, i32, i32, i32, i32, i64, double, i32, i32, i32, i32, i32, i32, i32, [4 x ptr], [4 x i32], [4 x ptr], [4 x i32], ptr, i32, i32, ptr }

@__const.fieldmatch_init.pad = private unnamed_addr constant %struct.AVFilterPad { ptr @.str.69, i32 0, i32 0, %union.anon zeroinitializer, ptr null, ptr null, ptr @config_input }, align 8
@.str.70 = private unnamed_addr constant [10 x i8] c"clean_src\00", align 1
@.str.71 = private unnamed_addr constant [49 x i8] c"blockx and blocky settings must be power of two\0A\00", align 1
@.str.72 = private unnamed_addr constant [56 x i8] c"Combed pixel should not be larger than blockx x blocky\0A\00", align 1

; Function Attrs: cold nounwind optsize uwtable
define internal i32 @fieldmatch_init(ptr noundef %0) #0 {
  %2 = alloca i32, align 4
  %3 = alloca ptr, align 8
  %4 = alloca ptr, align 8
  %5 = alloca %struct.AVFilterPad, align 8
  %6 = alloca i32, align 4
  %7 = alloca i32, align 4
  store ptr %0, ptr %3, align 8, !tbaa !4
  call void @llvm.lifetime.start.p0(i64 8, ptr %4) #10
  %8 = load ptr, ptr %3, align 8, !tbaa !4
  %9 = getelementptr inbounds nuw %struct.AVFilterContext, ptr %8, i32 0, i32 9
  %10 = load ptr, ptr %9, align 8, !tbaa !9
  store ptr %10, ptr %4, align 8, !tbaa !22
  call void @llvm.lifetime.start.p0(i64 48, ptr %5) #10
  call void @llvm.memcpy.p0.p0.i64(ptr align 8 %5, ptr align 8 @__const.fieldmatch_init.pad, i64 48, i1 false)
  call void @llvm.lifetime.start.p0(i64 4, ptr %6) #10
  %11 = load ptr, ptr %3, align 8, !tbaa !4
  %12 = call i32 @ff_append_inpad(ptr noundef %11, ptr noundef %5)
  store i32 %12, ptr %6, align 4, !tbaa !24
  %13 = icmp slt i32 %12, 0
  br i1 %13, label %14, label %16

14:                                               ; preds = %1
  %15 = load i32, ptr %6, align 4, !tbaa !24
  store i32 %15, ptr %2, align 4
  store i32 1, ptr %7, align 4
  br label %67

16:                                               ; preds = %1
  %17 = load ptr, ptr %4, align 8, !tbaa !22
  %18 = getelementptr inbounds nuw %struct.FieldMatchContext, ptr %17, i32 0, i32 15
  %19 = load i32, ptr %18, align 4, !tbaa !25
  %20 = icmp ne i32 %19, 0
  br i1 %20, label %21, label %30

21:                                               ; preds = %16
  %22 = getelementptr inbounds nuw %struct.AVFilterPad, ptr %5, i32 0, i32 0
  store ptr @.str.70, ptr %22, align 8, !tbaa !31
  %23 = getelementptr inbounds nuw %struct.AVFilterPad, ptr %5, i32 0, i32 6
  store ptr null, ptr %23, align 8, !tbaa !33
  %24 = load ptr, ptr %3, align 8, !tbaa !4
  %25 = call i32 @ff_append_inpad(ptr noundef %24, ptr noundef %5)
  store i32 %25, ptr %6, align 4, !tbaa !24
  %26 = icmp slt i32 %25, 0
  br i1 %26, label %27, label %29

27:                                               ; preds = %21
  %28 = load i32, ptr %6, align 4, !tbaa !24
  store i32 %28, ptr %2, align 4
  store i32 1, ptr %7, align 4
  br label %67

29:                                               ; preds = %21
  br label %30

30:                                               ; preds = %29, %16
  %31 = load ptr, ptr %4, align 8, !tbaa !22
  %32 = getelementptr inbounds nuw %struct.FieldMatchContext, ptr %31, i32 0, i32 27
  %33 = load i32, ptr %32, align 8, !tbaa !34
  %34 = load ptr, ptr %4, align 8, !tbaa !22
  %35 = getelementptr inbounds nuw %struct.FieldMatchContext, ptr %34, i32 0, i32 27
  %36 = load i32, ptr %35, align 8, !tbaa !34
  %37 = sub nsw i32 %36, 1
  %38 = and i32 %33, %37
  %39 = icmp ne i32 %38, 0
  br i1 %39, label %50, label %40

40:                                               ; preds = %30
  %41 = load ptr, ptr %4, align 8, !tbaa !22
  %42 = getelementptr inbounds nuw %struct.FieldMatchContext, ptr %41, i32 0, i32 28
  %43 = load i32, ptr %42, align 4, !tbaa !35
  %44 = load ptr, ptr %4, align 8, !tbaa !22
  %45 = getelementptr inbounds nuw %struct.FieldMatchContext, ptr %44, i32 0, i32 28
  %46 = load i32, ptr %45, align 4, !tbaa !35
  %47 = sub nsw i32 %46, 1
  %48 = and i32 %43, %47
  %49 = icmp ne i32 %48, 0
  br i1 %49, label %50, label %52

50:                                               ; preds = %40, %30
  %51 = load ptr, ptr %3, align 8, !tbaa !4
  call void (ptr, i32, ptr, ...) @av_log(ptr noundef %51, i32 noundef 16, ptr noundef @.str.71)
  store i32 -22, ptr %2, align 4
  store i32 1, ptr %7, align 4
  br label %67

52:                                               ; preds = %40
  %53 = load ptr, ptr %4, align 8, !tbaa !22
  %54 = getelementptr inbounds nuw %struct.FieldMatchContext, ptr %53, i32 0, i32 29
  %55 = load i32, ptr %54, align 8, !tbaa !36
  %56 = load ptr, ptr %4, align 8, !tbaa !22
  %57 = getelementptr inbounds nuw %struct.FieldMatchContext, ptr %56, i32 0, i32 27
  %58 = load i32, ptr %57, align 8, !tbaa !34
  %59 = load ptr, ptr %4, align 8, !tbaa !22
  %60 = getelementptr inbounds nuw %struct.FieldMatchContext, ptr %59, i32 0, i32 28
  %61 = load i32, ptr %60, align 4, !tbaa !35
  %62 = mul nsw i32 %58, %61
  %63 = icmp sgt i32 %55, %62
  br i1 %63, label %64, label %66

64:                                               ; preds = %52
  %65 = load ptr, ptr %3, align 8, !tbaa !4
  call void (ptr, i32, ptr, ...) @av_log(ptr noundef %65, i32 noundef 16, ptr noundef @.str.72)
  store i32 -22, ptr %2, align 4
  store i32 1, ptr %7, align 4
  br label %67

66:                                               ; preds = %52
  store i32 0, ptr %2, align 4
  store i32 1, ptr %7, align 4
  br label %67

67:                                               ; preds = %66, %64, %50, %27, %14
  call void @llvm.lifetime.end.p0(i64 4, ptr %6) #10
  call void @llvm.lifetime.end.p0(i64 48, ptr %5) #10
  call void @llvm.lifetime.end.p0(i64 8, ptr %4) #10
  %68 = load i32, ptr %2, align 4
  ret i32 %68
}