; Function Attrs: cold nounwind optsize uwtable
define internal range(i32 -2147483648, 1) i32 @fieldmatch_init(ptr noundef %0) #0 {
  %2 = alloca %struct.AVFilterPad, align 8
  %3 = getelementptr inbounds nuw i8, ptr %0, i64 72
  %4 = load ptr, ptr %3, align 8, !tbaa !4
  call void @llvm.lifetime.start.p0(i64 48, ptr nonnull %2) #10
  call void @llvm.memcpy.p0.p0.i64(ptr noundef nonnull align 8 dereferenceable(48) %2, ptr noundef nonnull align 8 dereferenceable(48) @__const.fieldmatch_init.pad, i64 48, i1 false)
  %5 = call i32 @ff_append_inpad(ptr noundef %0, ptr noundef nonnull %2) #10
  %6 = icmp slt i32 %5, 0
  br i1 %6, label %27, label %7

7:                                                ; preds = %1
  %8 = getelementptr inbounds nuw i8, ptr %4, i64 108
  %9 = load i32, ptr %8, align 4, !tbaa !20
  %.not = icmp eq i32 %9, 0
  br i1 %.not, label %14, label %10

10:                                               ; preds = %7
  store ptr @.str.70, ptr %2, align 8, !tbaa !26
  %11 = getelementptr inbounds nuw i8, ptr %2, i64 40
  store ptr null, ptr %11, align 8, !tbaa !28
  %12 = call i32 @ff_append_inpad(ptr noundef nonnull %0, ptr noundef nonnull %2) #10
  %13 = icmp slt i32 %12, 0
  br i1 %13, label %27, label %14

14:                                               ; preds = %10, %7
  %15 = getelementptr inbounds nuw i8, ptr %4, i64 168
  %16 = load i32, ptr %15, align 8, !tbaa !29
  %17 = call range(i32 0, 33) i32 @llvm.ctpop.i32(i32 %16)
  %.not17 = icmp samesign ult i32 %17, 2
  br i1 %.not17, label %18, label %.sink.split

18:                                               ; preds = %14
  %19 = getelementptr inbounds nuw i8, ptr %4, i64 172
  %20 = load i32, ptr %19, align 4, !tbaa !30
  %21 = call range(i32 0, 33) i32 @llvm.ctpop.i32(i32 %20)
  %.not18 = icmp samesign ult i32 %21, 2
  br i1 %.not18, label %22, label %.sink.split

22:                                               ; preds = %18
  %23 = getelementptr inbounds nuw i8, ptr %4, i64 176
  %24 = load i32, ptr %23, align 8, !tbaa !31
  %25 = mul nsw i32 %20, %16
  %26 = icmp sgt i32 %24, %25
  br i1 %26, label %.sink.split, label %27

.sink.split:                                      ; preds = %22, %14, %18
  %.str.72.sink = phi ptr [ @.str.71, %18 ], [ @.str.71, %14 ], [ @.str.72, %22 ]
  call void (ptr, i32, ptr, ...) @av_log(ptr noundef nonnull %0, i32 noundef 16, ptr noundef nonnull %.str.72.sink) #10
  br label %27

27:                                               ; preds = %.sink.split, %22, %10, %1
  %.0 = phi i32 [ %5, %1 ], [ %12, %10 ], [ 0, %22 ], [ -22, %.sink.split ]
  call void @llvm.lifetime.end.p0(i64 48, ptr nonnull %2) #10
  ret i32 %.0
}